; Function Attrs: nofree norecurse nosync nounwind memory(readwrite, inaccessiblemem: none) uwtable
define internal void @color_decorrelation_rgb(ptr noundef readonly captures(none) %0, i32 noundef %1, ptr noundef readonly captures(none) %2, i32 noundef %3, i32 noundef %4, i32 noundef %5) #6 {
  %7 = icmp sgt i32 %5, 0
  br i1 %7, label %.preheader.lr.ph, label %color_decorrelation.exit

.preheader.lr.ph:                                 ; preds = %6
  %8 = icmp sgt i32 %4, 0
  %.neg.i = mul i32 %4, -3
  %9 = add i32 %.neg.i, %3
  %10 = sext i32 %9 to i64
  %11 = sext i32 %1 to i64
  br i1 %8, label %.preheader.us.preheader, label %color_decorrelation.exit

.preheader.us.preheader:                          ; preds = %.preheader.lr.ph
  %12 = load ptr, ptr %0, align 8, !tbaa !57
  %13 = getelementptr inbounds nuw i8, ptr %0, i64 8
  %14 = load ptr, ptr %13, align 8, !tbaa !57
  %15 = getelementptr inbounds nuw i8, ptr %0, i64 16
  %16 = load ptr, ptr %15, align 8, !tbaa !57
  %17 = load ptr, ptr %2, align 8, !tbaa !63
  %wide.trip.count = zext nneg i32 %4 to i64
  br label %.preheader.us

.preheader.us:                                    ; preds = %.preheader.us.preheader, %._crit_edge.us
  %.0.i11.us = phi ptr [ %49, %._crit_edge.us ], [ %17, %.preheader.us.preheader ]
  %.041.i10.us = phi ptr [ %52, %._crit_edge.us ], [ %16, %.preheader.us.preheader ]
  %.042.i9.us = phi ptr [ %51, %._crit_edge.us ], [ %14, %.preheader.us.preheader ]
  %.043.i8.us = phi ptr [ %50, %._crit_edge.us ], [ %12, %.preheader.us.preheader ]
  %.044.i7.us = phi i32 [ %53, %._crit_edge.us ], [ 0, %.preheader.us.preheader ]
  br label %18

18:                                               ; preds = %.preheader.us, %18
  %indvars.iv = phi i64 [ 0, %.preheader.us ], [ %indvars.iv.next, %18 ]
  %.1.i6.us = phi ptr [ %.0.i11.us, %.preheader.us ], [ %48, %18 ]
  %19 = load i8, ptr %.1.i6.us, align 1, !tbaa !83
  %20 = uitofp i8 %19 to float
  %21 = getelementptr inbounds nuw i8, ptr %.1.i6.us, i64 1
  %22 = load i8, ptr %21, align 1, !tbaa !83
  %23 = uitofp i8 %22 to float
  %24 = fmul nsz float %23, 0x3FE279A740000000
  %25 = tail call nsz float @llvm.fmuladd.f32(float %20, float 0x3FE279A740000000, float %24)
  %26 = getelementptr inbounds nuw i8, ptr %.1.i6.us, i64 2
  %27 = load i8, ptr %26, align 1, !tbaa !83
  %28 = uitofp i8 %27 to float
  %29 = tail call nsz float @llvm.fmuladd.f32(float %28, float 0x3FE279A740000000, float %25)
  %30 = getelementptr inbounds nuw float, ptr %.043.i8.us, i64 %indvars.iv
  store float %29, ptr %30, align 4, !tbaa !74
  %31 = load i8, ptr %.1.i6.us, align 1, !tbaa !83
  %32 = uitofp i8 %31 to float
  %33 = load i8, ptr %26, align 1, !tbaa !83
  %34 = uitofp i8 %33 to float
  %35 = fmul nsz float %34, 0xBFE6A09E60000000
  %36 = tail call nsz float @llvm.fmuladd.f32(float %32, float 0x3FE6A09E60000000, float %35)
  %37 = getelementptr inbounds nuw float, ptr %.042.i9.us, i64 %indvars.iv
  store float %36, ptr %37, align 4, !tbaa !74
  %38 = load i8, ptr %.1.i6.us, align 1, !tbaa !83
  %39 = uitofp i8 %38 to float
  %40 = load i8, ptr %21, align 1, !tbaa !83
  %41 = uitofp i8 %40 to float
  %42 = fmul nsz float %41, 0xBFEA20BD80000000
  %43 = tail call nsz float @llvm.fmuladd.f32(float %39, float 0x3FDA20BD80000000, float %42)
  %44 = load i8, ptr %26, align 1, !tbaa !83
  %45 = uitofp i8 %44 to float
  %46 = tail call nsz float @llvm.fmuladd.f32(float %45, float 0x3FDA20BD80000000, float %43)
  %47 = getelementptr inbounds nuw float, ptr %.041.i10.us, i64 %indvars.iv
  store float %46, ptr %47, align 4, !tbaa !74
  %48 = getelementptr inbounds nuw i8, ptr %.1.i6.us, i64 3
  %indvars.iv.next = add nuw nsw i64 %indvars.iv, 1
  %exitcond.not = icmp eq i64 %indvars.iv.next, %wide.trip.count
  br i1 %exitcond.not, label %._crit_edge.us, label %18, !llvm.loop !84

._crit_edge.us:                                   ; preds = %18
  %49 = getelementptr inbounds i8, ptr %48, i64 %10
  %50 = getelementptr inbounds float, ptr %.043.i8.us, i64 %11
  %51 = getelementptr inbounds float, ptr %.042.i9.us, i64 %11
  %52 = getelementptr inbounds float, ptr %.041.i10.us, i64 %11
  %53 = add nuw nsw i32 %.044.i7.us, 1
  %exitcond14.not = icmp eq i32 %53, %5
  br i1 %exitcond14.not, label %color_decorrelation.exit, label %.preheader.us, !llvm.loop !85

color_decorrelation.exit:                         ; preds = %._crit_edge.us, %.preheader.lr.ph, %6
  ret void
}